; Function Attrs: mustprogress null_pointer_is_valid sspstrong uwtable
define void @_ZN11ElidedLabel7setTextERK7QString(ptr noundef align 8 dereferenceable_or_null(96) %0, ptr noundef align 8 dereferenceable(24) %1) local_unnamed_addr #0 align 2 {
  %3 = alloca %class.QString, align 8
  call void @llvm.lifetime.start.p0(i64 24, ptr nonnull %3) #7
  call void @_ZNK7QString13toHtmlEscapedEv(ptr dead_on_unwind nonnull writable sret(%class.QString) align 8 %3, ptr noundef align 8 dereferenceable_or_null(24) %1)
  %4 = getelementptr inbounds nuw i8, ptr %0, i64 48
  %5 = load ptr, ptr %4, align 8
  %6 = load ptr, ptr %3, align 8
  store ptr %6, ptr %4, align 8
  store ptr %5, ptr %3, align 8
  %7 = getelementptr inbounds nuw i8, ptr %0, i64 56
  %8 = getelementptr inbounds nuw i8, ptr %3, i64 8
  %9 = load ptr, ptr %7, align 8
  %10 = load ptr, ptr %8, align 8
  store ptr %10, ptr %7, align 8
  store ptr %9, ptr %8, align 8
  %11 = getelementptr inbounds nuw i8, ptr %0, i64 64
  %12 = getelementptr inbounds nuw i8, ptr %3, i64 16
  %13 = load i64, ptr %11, align 8
  %14 = load i64, ptr %12, align 8
  store i64 %14, ptr %11, align 8
  store i64 %13, ptr %12, align 8
  %.not.i.i.i = icmp eq ptr %5, null
  br i1 %.not.i.i.i, label %_ZN7QStringD2Ev.exit, label %_ZN17QArrayDataPointerIDsE5derefEv.exit.i.i

_ZN17QArrayDataPointerIDsE5derefEv.exit.i.i:      ; preds = %2
  %15 = atomicrmw sub ptr %5, i32 1 seq_cst, align 4
  %.not.i.i = icmp eq i32 %15, 1
  br i1 %.not.i.i, label %16, label %_ZN7QStringD2Ev.exit

16:                                               ; preds = %_ZN17QArrayDataPointerIDsE5derefEv.exit.i.i
  %17 = load ptr, ptr %3, align 8
  call void @_ZN10QArrayData10deallocateEPS_xx(ptr noundef %17, i64 noundef 2, i64 noundef 8) #7
  br label %_ZN7QStringD2Ev.exit

_ZN7QStringD2Ev.exit:                             ; preds = %2, %_ZN17QArrayDataPointerIDsE5derefEv.exit.i.i, %16
  call void @llvm.lifetime.end.p0(i64 24, ptr nonnull %3) #7
  call void @_ZN11ElidedLabel10updateTextEv(ptr noundef align 8 dereferenceable_or_null(96) %0)
  ret void
}